; Function Attrs: nounwind memory(readwrite, argmem: read) uwtable
define internal fastcc range(i32 0, 2) i32 @arkode_butcher_order3a(ptr noundef readonly captures(address_is_null) %0, ptr noundef readonly captures(address_is_null) %1, ptr noundef readonly captures(address_is_null) %2, i32 noundef %3) unnamed_addr #10 {
  %5 = sext i32 %3 to i64
  %6 = tail call noalias ptr @calloc(i64 noundef %5, i64 noundef 8) #16
  %7 = icmp eq ptr %1, null
  %8 = icmp eq ptr %2, null
  %or.cond.i = or i1 %7, %8
  %9 = icmp eq ptr %6, null
  %or.cond3.i = or i1 %or.cond.i, %9
  %10 = icmp slt i32 %3, 1
  %or.cond5.i = or i1 %10, %or.cond3.i
  br i1 %or.cond5.i, label %arkode_butcher_vv.exit, label %.preheader.preheader.i

.preheader.preheader.i:                           ; preds = %4
  %wide.trip.count.i = zext nneg i32 %3 to i64
  br label %.preheader.i

.preheader.i:                                     ; preds = %.preheader.i, %.preheader.preheader.i
  %indvars.iv.i = phi i64 [ 0, %.preheader.preheader.i ], [ %indvars.iv.next.i, %.preheader.i ]
  %11 = getelementptr inbounds nuw double, ptr %1, i64 %indvars.iv.i
  %12 = load double, ptr %11, align 8, !tbaa !18
  %13 = getelementptr inbounds nuw double, ptr %2, i64 %indvars.iv.i
  %14 = load double, ptr %13, align 8, !tbaa !18
  %15 = fmul double %12, %14
  %16 = getelementptr inbounds nuw double, ptr %6, i64 %indvars.iv.i
  store double %15, ptr %16, align 8, !tbaa !18
  %indvars.iv.next.i = add nuw nsw i64 %indvars.iv.i, 1
  %exitcond.not.i = icmp eq i64 %indvars.iv.next.i, %wide.trip.count.i
  br i1 %exitcond.not.i, label %17, label %.preheader.i

arkode_butcher_vv.exit:                           ; preds = %4
  tail call void @free(ptr noundef %6) #17
  br label %arkode_butcher_dot.exit

17:                                               ; preds = %.preheader.i
  %18 = icmp eq ptr %0, null
  br i1 %18, label %arkode_butcher_dot.exit, label %.preheader

.preheader:                                       ; preds = %17, %.preheader
  %indvars.iv.i14 = phi i64 [ %indvars.iv.next.i15, %.preheader ], [ 0, %17 ]
  %19 = phi double [ %24, %.preheader ], [ 0.000000e+00, %17 ]
  %20 = getelementptr inbounds nuw double, ptr %0, i64 %indvars.iv.i14
  %21 = load double, ptr %20, align 8, !tbaa !18
  %22 = getelementptr inbounds nuw double, ptr %6, i64 %indvars.iv.i14
  %23 = load double, ptr %22, align 8, !tbaa !18
  %24 = tail call double @llvm.fmuladd.f64(double %21, double %23, double %19)
  %indvars.iv.next.i15 = add nuw nsw i64 %indvars.iv.i14, 1
  %exitcond.not.i16 = icmp eq i64 %indvars.iv.next.i15, %wide.trip.count.i
  br i1 %exitcond.not.i16, label %25, label %.preheader

25:                                               ; preds = %.preheader
  tail call void @free(ptr noundef nonnull %6) #17
  %26 = fadd double %24, 0xBFD5555555555555
  %27 = tail call double @llvm.fabs.f64(double %26)
  %28 = fcmp ule double %27, 0x3E50000000000000
  %29 = zext i1 %28 to i32
  br label %arkode_butcher_dot.exit

arkode_butcher_dot.exit:                          ; preds = %17, %25, %arkode_butcher_vv.exit
  %.0 = phi i32 [ 0, %arkode_butcher_vv.exit ], [ %29, %25 ], [ 0, %17 ]
  ret i32 %.0
}